(dp1
S'layout'
p2
(ilayout
Layout
p3
(dp4
S'capsules'
p5
(lp6
(I18
I1
tp7
a(I1
I9
tp8
asS'numGhosts'
p9
I2
sS'food'
p10
(igame
Grid
p11
(dp12
S'CELLS_PER_INT'
p13
I30
sS'width'
p14
I20
sS'data'
p15
(lp16
(lp17
I00
aI00
aI00
aI00
aI00
aI00
aI00
aI00
aI00
aI00
aI00
aa(lp18
I00
aI01
aI01
aI01
aI01
aI01
aI01
aI01
aI01
aI00
aI00
aa(lp19
I00
aI01
aI00
aI00
aI00
aI01
aI00
aI00
aI00
aI01
aI00
aa(lp20
I00
aI01
aI00
aI01
aI01
aI01
aI01
aI01
aI00
aI01
aI00
aa(lp21
I00
aI01
aI01
aI01
aI00
aI01
aI00
aI01
aI01
aI01
aI00
aa(lp22
I00
aI00
aI00
aI01
aI00
aI01
aI00
aI01
aI00
aI00
aI00
aa(lp23
I00
aI01
aI01
aI01
aI01
aI01
aI01
aI01
aI01
aI01
aI00
aa(lp24
I00
aI01
aI00
aI01
aI00
aI00
aI00
aI01
aI00
aI01
aI00
aa(lp25
I00
aI01
aI00
aI01
aI00
aI00
aI00
aI01
aI00
aI01
aI00
aa(lp26
I00
aI00
aI00
aI01
aI00
aI00
aI00
aI01
aI00
aI01
aI00
aa(lp27
I00
aI01
aI00
aI01
aI00
aI00
aI00
aI01
aI00
aI01
aI00
aa(lp28
I00
aI01
aI00
aI01
aI00
aI00
aI00
aI01
aI00
aI01
aI00
aa(lp29
I00
aI01
aI00
aI01
aI00
aI00
aI00
aI01
aI00
aI01
aI00
aa(lp30
I00
aI01
aI01
aI01
aI01
aI01
aI01
aI01
aI01
aI01
aI00
aa(lp31
I00
aI00
aI00
aI01
aI00
aI01
aI00
aI01
aI00
aI00
aI00
aa(lp32
I00
aI01
aI01
aI01
aI00
aI01
aI00
aI01
aI01
aI01
aI00
aa(lp33
I00
aI01
aI00
aI01
aI01
aI01
aI01
aI01
aI00
aI01
aI00
aa(lp34
I00
aI01
aI00
aI00
aI00
aI01
aI00
aI00
aI00
aI01
aI00
aa(lp35
I00
aI00
aI01
aI01
aI01
aI01
aI01
aI01
aI01
aI01
aI00
aa(lp36
I00
aI00
aI00
aI00
aI00
aI00
aI00
aI00
aI00
aI00
aI00
aasS'height'
p37
I11
sbsS'agentPositions'
p38
(lp39
(I01
(I9
I1
tp40
tp41
a(I00
(I8
I5
tp42
tp43
a(I00
(I11
I5
tp44
tp45
asg37
I11
sg14
I20
sS'walls'
p46
(igame
Grid
p47
(dp48
g13
I30
sg14
I20
sg15
(lp49
(lp50
I01
aI01
aI01
aI01
aI01
aI01
aI01
aI01
aI01
aI01
aI01
aa(lp51
I01
aI00
aI00
aI00
aI00
aI00
aI00
aI00
aI00
aI00
aI01
aa(lp52
I01
aI00
aI01
aI01
aI01
aI00
aI01
aI01
aI01
aI00
aI01
aa(lp53
I01
aI00
aI01
aI00
aI00
aI00
aI00
aI00
aI01
aI00
aI01
aa(lp54
I01
aI00
aI00
aI00
aI01
aI00
aI01
aI00
aI00
aI00
aI01
aa(lp55
I01
aI01
aI01
aI00
aI01
aI00
aI01
aI00
aI01
aI01
aI01
aa(lp56
I01
aI00
aI00
aI00
aI00
aI00
aI00
aI00
aI00
aI00
aI01
aa(lp57
I01
aI00
aI01
aI00
aI01
aI01
aI01
aI00
aI01
aI00
aI01
aa(lp58
I01
aI00
aI01
aI00
aI01
aI00
aI01
aI00
aI01
aI00
aI01
aa(lp59
I01
aI00
aI01
aI00
aI01
aI00
aI00
aI00
aI01
aI00
aI01
aa(lp60
I01
aI00
aI01
aI00
aI01
aI00
aI00
aI00
aI01
aI00
aI01
aa(lp61
I01
aI00
aI01
aI00
aI01
aI00
aI01
aI00
aI01
aI00
aI01
aa(lp62
I01
aI00
aI01
aI00
aI01
aI01
aI01
aI00
aI01
aI00
aI01
aa(lp63
I01
aI00
aI00
aI00
aI00
aI00
aI00
aI00
aI00
aI00
aI01
aa(lp64
I01
aI01
aI01
aI00
aI01
aI00
aI01
aI00
aI01
aI01
aI01
aa(lp65
I01
aI00
aI00
aI00
aI01
aI00
aI01
aI00
aI00
aI00
aI01
aa(lp66
I01
aI00
aI01
aI00
aI00
aI00
aI00
aI00
aI01
aI00
aI01
aa(lp67
I01
aI00
aI01
aI01
aI01
aI00
aI01
aI01
aI01
aI00
aI01
aa(lp68
I01
aI00
aI00
aI00
aI00
aI00
aI00
aI00
aI00
aI00
aI01
aa(lp69
I01
aI01
aI01
aI01
aI01
aI01
aI01
aI01
aI01
aI01
aI01
aasg37
I11
sbsS'totalFood'
p70
I97
sS'layoutText'
p71
(lp72
S'%%%%%%%%%%%%%%%%%%%%'
p73
aS'%o...%........%....%'
p74
aS'%.%%.%.%%%%%%.%.%%.%'
p75
aS'%.%..............%.%'
p76
aS'%.%.%%.%%  %%.%%.%.%'
p77
aS'%......%G  G%......%'
p78
aS'%.%.%%.%%%%%%.%%.%.%'
p79
aS'%.%..............%.%'
p80
aS'%.%%.%.%%%%%%.%.%%.%'
p81
aS'%....%...P....%...o%'
p82
aS'%%%%%%%%%%%%%%%%%%%%'
p83
asbsS'actions'
p84
(lp85
(I0
S'Stop'
p86
tp87
a(I1
S'East'
p88
tp89
a(I2
S'West'
p90
tp91
a(I0
g86
tp92
a(I1
g88
tp93
a(I2
S'North'
p94
tp95
a(I0
g86
tp96
a(I1
g94
tp97
a(I2
g94
tp98
a(I0
g86
tp99
a(I1
g90
tp100
a(I2
g88
tp101
a(I0
g86
tp102
a(I1
S'South'
p103
tp104
a(I2
g88
tp105
a(I0
g86
tp106
a(I1
g88
tp107
a(I2
g88
tp108
a(I0
g88
tp109
a(I1
g88
tp110
a(I2
g94
tp111
a(I0
g88
tp112
a(I1
g90
tp113
a(I2
g94
tp114
a(I0
g88
tp115
a(I1
g90
tp116
a(I2
g90
tp117
a(I0
g88
tp118
a(I1
g94
tp119
a(I2
g90
tp120
a(I0
g94
tp121
a(I1
g88
tp122
a(I2
g90
tp123
a(I0
g94
tp124
a(I1
g103
tp125
a(I2
g90
tp126
a(I0
g88
tp127
a(I1
g88
tp128
a(I2
g90
tp129
a(I0
g88
tp130
a(I1
g90
tp131
a(I2
g90
tp132
a(I0
g103
tp133
a(I1
g94
tp134
a(I2
g90
tp135
a(I0
g103
tp136
a(I1
g90
tp137
a(I2
g103
tp138
a(I0
g88
tp139
a(I1
g103
tp140
a(I2
g103
tp141
a(I0
g88
tp142
a(I1
g88
tp143
a(I2
g103
tp144
a(I0
g88
tp145
a(I1
g88
tp146
a(I2
g103
tp147
a(I0
g86
tp148
a(I1
g88
tp149
a(I2
g103
tp150
a(I0
g94
tp151
a(I1
g90
tp152
a(I2
g90
tp153
a(I0
g94
tp154
a(I1
g90
tp155
a(I2
g90
tp156
a(I0
g94
tp157
a(I1
g94
tp158
a(I2
g90
tp159
a(I0
g94
tp160
a(I1
g94
tp161
a(I2
g90
tp162
a(I0
g90
tp163
a(I1
g90
tp164
a(I2
g90
tp165
a(I0
g90
tp166
a(I1
g90
tp167
a(I2
g90
tp168
a(I0
g90
tp169
a(I1
g94
tp170
a(I2
g90
tp171
a(I0
g90
tp172
a(I1
g94
tp173
a(I2
g90
tp174
a(I0
g90
tp175
a(I1
g90
tp176
a(I2
g90
tp177
a(I0
g94
tp178
a(I1
g90
tp179
a(I2
g90
tp180
a(I0
g94
tp181
a(I1
g90
tp182
a(I2
g103
tp183
a(I0
g90
tp184
a(I1
g90
tp185
a(I2
g103
tp186
a(I0
g90
tp187
a(I1
g90
tp188
a(I2
g103
tp189
a(I0
g90
tp190
a(I1
g90
tp191
a(I2
g103
tp192
a(I0
g90
tp193
a(I1
g94
tp194
a(I2
g103
tp195
a(I0
g90
tp196
a(I1
g94
tp197
a(I2
g103
tp198
a(I0
g90
tp199
a(I1
g94
tp200
a(I2
g103
tp201
a(I0
g90
tp202
a(I1
g94
tp203
a(I2
g103
tp204
a(I0
g90
tp205
a(I1
g88
tp206
a(I2
g88
tp207
a(I0
g90
tp208
a(I1
g88
tp209
a(I2
g88
tp210
a(I0
g90
tp211
a(I1
g88
tp212
a(I2
g88
tp213
a(I0
g103
tp214
a(I1
g88
tp215
a(I2
g88
tp216
a(I0
g103
tp217
a(I1
g88
tp218
a(I2
g88
tp219
a(I0
g103
tp220
a(I1
g88
tp221
a(I2
g88
tp222
a(I0
g103
tp223
a(I1
g88
tp224
a(I2
g94
tp225
a(I0
g88
tp226
a(I1
g88
tp227
a(I2
g94
tp228
a(I0
g103
tp229
a(I1
g88
tp230
a(I2
g90
tp231
a(I0
g103
tp232
a(I1
g88
tp233
a(I2
g94
tp234
a(I0
g86
tp235
a(I1
g88
tp236
a(I2
g90
tp237
a(I0
g86
tp238
a(I1
g88
tp239
a(I2
g94
tp240
a(I0
g86
tp241
a(I1
g88
tp242
a(I2
g90
tp243
a(I0
g90
tp244
a(I1
g88
tp245
a(I2
g90
tp246
a(I0
g90
tp247
a(I1
g103
tp248
a(I2
g90
tp249
a(I0
g90
tp250
a(I1
g103
tp251
a(I2
g103
tp252
a(I0
g94
tp253
a(I1
g103
tp254
a(I2
g103
tp255
a(I0
g94
tp256
a(I1
g103
tp257
a(I2
g90
tp258
a(I0
g94
tp259
a(I1
g103
tp260
a(I2
g90
tp261
a(I0
g94
tp262
a(I1
g103
tp263
a(I2
g90
tp264
a(I0
g94
tp265
a(I1
g103
tp266
a(I2
g94
tp267
a(I0
g94
tp268
a(I1
g88
tp269
a(I2
g94
tp270
a(I0
g94
tp271
a(I1
g88
tp272
a(I2
g88
tp273
a(I0
g94
tp274
a(I1
g88
tp275
a(I2
g94
tp276
a(I0
g88
tp277
a(I1
g88
tp278
a(I2
g94
tp279
a(I0
g88
tp280
a(I1
g103
tp281
a(I2
g94
tp282
a(I0
g88
tp283
a(I1
g103
tp284
a(I2
g90
tp285
a(I0
g103
tp286
a(I1
g103
tp287
a(I2
g94
tp288
a(I0
g103
tp289
a(I1
g103
tp290
a(I2
g90
tp291
a(I0
g86
tp292
a(I1
g90
tp293
a(I2
g94
tp294
a(I0
g86
tp295
a(I1
g90
tp296
a(I2
g90
tp297
a(I0
g88
tp298
a(I1
g103
tp299
a(I2
g90
tp300
a(I0
g88
tp301
a(I1
g103
tp302
a(I2
g90
tp303
as.